target datalayout = "e-m:e-p270:32:32-p271:32:32-p272:64:64-i64:64-i128:128-f80:128-n8:16:32:64-S128"
target triple = "x86_64-pc-linux-gnu"

%struct.DdManager = type { %struct.DdNode, ptr, ptr, ptr, ptr, ptr, ptr, ptr, i32, i32, double, double, double, i32, i32, i32, i32, i32, i32, ptr, ptr, %struct.DdSubtable, i32, i32, i32, i32, i32, i32, i32, double, i32, i32, i32, ptr, i64, double, i32, ptr, ptr, ptr, ptr, ptr, ptr, ptr, i32, ptr, ptr, ptr, ptr, ptr, ptr, i32, i32, i32, double, i32, i32, i32, i32, double, double, i32, i32, i32, i32, i32, i32, i32, i32, i32, ptr, ptr, i32, i32, i32, i32, i32, i32, ptr, ptr, ptr, ptr, ptr, ptr, ptr, ptr, i32, i64, i64, i64, i32, i64, i64, double, double, double, double, double, double, i32, ptr, ptr, i64 }
%struct.DdNode = type { i32, i32, ptr, %union.anon, i64 }
%union.anon = type { %struct.DdChildren }
%struct.DdChildren = type { ptr, ptr }
%struct.DdSubtable = type { ptr, i32, i32, i32, i32, i32, i32, i32, i32, i32, i32, i32 }
%struct.Move = type { i32, i32, i32, i32, ptr }

; Function Attrs: nounwind uwtable
define internal i32 @zddGroupMoveBackward(ptr noundef %0, i32 noundef %1, i32 noundef %2) #0 {
  %4 = alloca i32, align 4
  %5 = alloca ptr, align 8
  %6 = alloca i32, align 4
  %7 = alloca i32, align 4
  %8 = alloca i32, align 4
  %9 = alloca i32, align 4
  %10 = alloca i32, align 4
  %11 = alloca i32, align 4
  %12 = alloca i32, align 4
  %13 = alloca i32, align 4
  %14 = alloca i32, align 4
  %15 = alloca i32, align 4
  %16 = alloca i32, align 4
  %17 = alloca i32, align 4
  %18 = alloca i32, align 4
  store ptr %0, ptr %5, align 8, !tbaa !3
  store i32 %1, ptr %6, align 4, !tbaa !8
  store i32 %2, ptr %7, align 4, !tbaa !8
  call void @llvm.lifetime.start.p0(i64 4, ptr %8) #5
  call void @llvm.lifetime.start.p0(i64 4, ptr %9) #5
  call void @llvm.lifetime.start.p0(i64 4, ptr %10) #5
  call void @llvm.lifetime.start.p0(i64 4, ptr %11) #5
  call void @llvm.lifetime.start.p0(i64 4, ptr %12) #5
  call void @llvm.lifetime.start.p0(i64 4, ptr %13) #5
  call void @llvm.lifetime.start.p0(i64 4, ptr %14) #5
  call void @llvm.lifetime.start.p0(i64 4, ptr %15) #5
  call void @llvm.lifetime.start.p0(i64 4, ptr %16) #5
  call void @llvm.lifetime.start.p0(i64 4, ptr %17) #5
  %19 = load i32, ptr %6, align 4, !tbaa !8
  store i32 %19, ptr %12, align 4, !tbaa !8
  %20 = load ptr, ptr %5, align 8, !tbaa !3
  %21 = getelementptr inbounds nuw %struct.DdManager, ptr %20, i32 0, i32 20
  %22 = load ptr, ptr %21, align 8, !tbaa !34
  %23 = load i32, ptr %6, align 4, !tbaa !8
  %24 = sext i32 %23 to i64
  %25 = getelementptr inbounds %struct.DdSubtable, ptr %22, i64 %24
  %26 = getelementptr inbounds nuw %struct.DdSubtable, ptr %25, i32 0, i32 6
  %27 = load i32, ptr %26, align 4, !tbaa !35
  store i32 %27, ptr %11, align 4, !tbaa !8
  %28 = load i32, ptr %12, align 4, !tbaa !8
  %29 = load i32, ptr %11, align 4, !tbaa !8
  %30 = sub nsw i32 %28, %29
  %31 = add nsw i32 %30, 1
  store i32 %31, ptr %13, align 4, !tbaa !8
  %32 = load i32, ptr %7, align 4, !tbaa !8
  store i32 %32, ptr %15, align 4, !tbaa !8
  br label %33

33:                                               ; preds = %44, %3
  %34 = load i32, ptr %15, align 4, !tbaa !8
  %35 = load ptr, ptr %5, align 8, !tbaa !3
  %36 = getelementptr inbounds nuw %struct.DdManager, ptr %35, i32 0, i32 20
  %37 = load ptr, ptr %36, align 8, !tbaa !34
  %38 = load i32, ptr %15, align 4, !tbaa !8
  %39 = sext i32 %38 to i64
  %40 = getelementptr inbounds %struct.DdSubtable, ptr %37, i64 %39
  %41 = getelementptr inbounds nuw %struct.DdSubtable, ptr %40, i32 0, i32 6
  %42 = load i32, ptr %41, align 4, !tbaa !35
  %43 = icmp ult i32 %34, %42
  br i1 %43, label %44, label %53

44:                                               ; preds = %33
  %45 = load ptr, ptr %5, align 8, !tbaa !3
  %46 = getelementptr inbounds nuw %struct.DdManager, ptr %45, i32 0, i32 20
  %47 = load ptr, ptr %46, align 8, !tbaa !34
  %48 = load i32, ptr %15, align 4, !tbaa !8
  %49 = sext i32 %48 to i64
  %50 = getelementptr inbounds %struct.DdSubtable, ptr %47, i64 %49
  %51 = getelementptr inbounds nuw %struct.DdSubtable, ptr %50, i32 0, i32 6
  %52 = load i32, ptr %51, align 4, !tbaa !35
  store i32 %52, ptr %15, align 4, !tbaa !8
  br label %33, !llvm.loop !88

53:                                               ; preds = %33
  %54 = load i32, ptr %7, align 4, !tbaa !8
  store i32 %54, ptr %14, align 4, !tbaa !8
  %55 = load i32, ptr %15, align 4, !tbaa !8
  %56 = load i32, ptr %14, align 4, !tbaa !8
  %57 = sub nsw i32 %55, %56
  %58 = add nsw i32 %57, 1
  store i32 %58, ptr %16, align 4, !tbaa !8
  store i32 1, ptr %9, align 4, !tbaa !8
  br label %59

59:                                               ; preds = %91, %53
  %60 = load i32, ptr %9, align 4, !tbaa !8
  %61 = load i32, ptr %16, align 4, !tbaa !8
  %62 = icmp sle i32 %60, %61
  br i1 %62, label %63, label %94

63:                                               ; preds = %59
  store i32 1, ptr %10, align 4, !tbaa !8
  br label %64

64:                                               ; preds = %81, %63
  %65 = load i32, ptr %10, align 4, !tbaa !8
  %66 = load i32, ptr %13, align 4, !tbaa !8
  %67 = icmp sle i32 %65, %66
  br i1 %67, label %68, label %84

68:                                               ; preds = %64
  %69 = load ptr, ptr %5, align 8, !tbaa !3
  %70 = load i32, ptr %6, align 4, !tbaa !8
  %71 = load i32, ptr %7, align 4, !tbaa !8
  %72 = call i32 @cuddZddSwapInPlace(ptr noundef %69, i32 noundef %70, i32 noundef %71)
  store i32 %72, ptr %8, align 4, !tbaa !8
  %73 = load i32, ptr %8, align 4, !tbaa !8
  %74 = icmp eq i32 %73, 0
  br i1 %74, label %75, label %76

75:                                               ; preds = %68
  store i32 0, ptr %4, align 4
  store i32 1, ptr %18, align 4
  br label %162

76:                                               ; preds = %68
  %77 = load i32, ptr %6, align 4, !tbaa !8
  store i32 %77, ptr %7, align 4, !tbaa !8
  %78 = load ptr, ptr %5, align 8, !tbaa !3
  %79 = load i32, ptr %7, align 4, !tbaa !8
  %80 = call i32 @cuddZddNextLow(ptr noundef %78, i32 noundef %79)
  store i32 %80, ptr %6, align 4, !tbaa !8
  br label %81

81:                                               ; preds = %76
  %82 = load i32, ptr %10, align 4, !tbaa !8
  %83 = add nsw i32 %82, 1
  store i32 %83, ptr %10, align 4, !tbaa !8
  br label %64, !llvm.loop !89

84:                                               ; preds = %64
  %85 = load i32, ptr %14, align 4, !tbaa !8
  %86 = load i32, ptr %9, align 4, !tbaa !8
  %87 = add nsw i32 %85, %86
  store i32 %87, ptr %7, align 4, !tbaa !8
  %88 = load ptr, ptr %5, align 8, !tbaa !3
  %89 = load i32, ptr %7, align 4, !tbaa !8
  %90 = call i32 @cuddZddNextLow(ptr noundef %88, i32 noundef %89)
  store i32 %90, ptr %6, align 4, !tbaa !8
  br label %91

91:                                               ; preds = %84
  %92 = load i32, ptr %9, align 4, !tbaa !8
  %93 = add nsw i32 %92, 1
  store i32 %93, ptr %9, align 4, !tbaa !8
  br label %59, !llvm.loop !90

94:                                               ; preds = %59
  %95 = load i32, ptr %11, align 4, !tbaa !8
  store i32 %95, ptr %7, align 4, !tbaa !8
  store i32 0, ptr %9, align 4, !tbaa !8
  br label %96

96:                                               ; preds = %115, %94
  %97 = load i32, ptr %9, align 4, !tbaa !8
  %98 = load i32, ptr %16, align 4, !tbaa !8
  %99 = sub nsw i32 %98, 1
  %100 = icmp slt i32 %97, %99
  br i1 %100, label %101, label %118

101:                                              ; preds = %96
  %102 = load ptr, ptr %5, align 8, !tbaa !3
  %103 = load i32, ptr %7, align 4, !tbaa !8
  %104 = call i32 @cuddZddNextHigh(ptr noundef %102, i32 noundef %103)
  %105 = load ptr, ptr %5, align 8, !tbaa !3
  %106 = getelementptr inbounds nuw %struct.DdManager, ptr %105, i32 0, i32 20
  %107 = load ptr, ptr %106, align 8, !tbaa !34
  %108 = load i32, ptr %7, align 4, !tbaa !8
  %109 = sext i32 %108 to i64
  %110 = getelementptr inbounds %struct.DdSubtable, ptr %107, i64 %109
  %111 = getelementptr inbounds nuw %struct.DdSubtable, ptr %110, i32 0, i32 6
  store i32 %104, ptr %111, align 4, !tbaa !35
  %112 = load ptr, ptr %5, align 8, !tbaa !3
  %113 = load i32, ptr %7, align 4, !tbaa !8
  %114 = call i32 @cuddZddNextHigh(ptr noundef %112, i32 noundef %113)
  store i32 %114, ptr %7, align 4, !tbaa !8
  br label %115

115:                                              ; preds = %101
  %116 = load i32, ptr %9, align 4, !tbaa !8
  %117 = add nsw i32 %116, 1
  store i32 %117, ptr %9, align 4, !tbaa !8
  br label %96, !llvm.loop !91

118:                                              ; preds = %96
  %119 = load i32, ptr %11, align 4, !tbaa !8
  %120 = load ptr, ptr %5, align 8, !tbaa !3
  %121 = getelementptr inbounds nuw %struct.DdManager, ptr %120, i32 0, i32 20
  %122 = load ptr, ptr %121, align 8, !tbaa !34
  %123 = load i32, ptr %7, align 4, !tbaa !8
  %124 = sext i32 %123 to i64
  %125 = getelementptr inbounds %struct.DdSubtable, ptr %122, i64 %124
  %126 = getelementptr inbounds nuw %struct.DdSubtable, ptr %125, i32 0, i32 6
  store i32 %119, ptr %126, align 4, !tbaa !35
  %127 = load ptr, ptr %5, align 8, !tbaa !3
  %128 = load i32, ptr %7, align 4, !tbaa !8
  %129 = call i32 @cuddZddNextHigh(ptr noundef %127, i32 noundef %128)
  store i32 %129, ptr %6, align 4, !tbaa !8
  %130 = load i32, ptr %6, align 4, !tbaa !8
  store i32 %130, ptr %17, align 4, !tbaa !8
  store i32 0, ptr %9, align 4, !tbaa !8
  br label %131

131:                                              ; preds = %150, %118
  %132 = load i32, ptr %9, align 4, !tbaa !8
  %133 = load i32, ptr %13, align 4, !tbaa !8
  %134 = sub nsw i32 %133, 1
  %135 = icmp slt i32 %132, %134
  br i1 %135, label %136, label %153

136:                                              ; preds = %131
  %137 = load ptr, ptr %5, align 8, !tbaa !3
  %138 = load i32, ptr %6, align 4, !tbaa !8
  %139 = call i32 @cuddZddNextHigh(ptr noundef %137, i32 noundef %138)
  %140 = load ptr, ptr %5, align 8, !tbaa !3
  %141 = getelementptr inbounds nuw %struct.DdManager, ptr %140, i32 0, i32 20
  %142 = load ptr, ptr %141, align 8, !tbaa !34
  %143 = load i32, ptr %6, align 4, !tbaa !8
  %144 = sext i32 %143 to i64
  %145 = getelementptr inbounds %struct.DdSubtable, ptr %142, i64 %144
  %146 = getelementptr inbounds nuw %struct.DdSubtable, ptr %145, i32 0, i32 6
  store i32 %139, ptr %146, align 4, !tbaa !35
  %147 = load ptr, ptr %5, align 8, !tbaa !3
  %148 = load i32, ptr %6, align 4, !tbaa !8
  %149 = call i32 @cuddZddNextHigh(ptr noundef %147, i32 noundef %148)
  store i32 %149, ptr %6, align 4, !tbaa !8
  br label %150

150:                                              ; preds = %136
  %151 = load i32, ptr %9, align 4, !tbaa !8
  %152 = add nsw i32 %151, 1
  store i32 %152, ptr %9, align 4, !tbaa !8
  br label %131, !llvm.loop !92

153:                                              ; preds = %131
  %154 = load i32, ptr %17, align 4, !tbaa !8
  %155 = load ptr, ptr %5, align 8, !tbaa !3
  %156 = getelementptr inbounds nuw %struct.DdManager, ptr %155, i32 0, i32 20
  %157 = load ptr, ptr %156, align 8, !tbaa !34
  %158 = load i32, ptr %6, align 4, !tbaa !8
  %159 = sext i32 %158 to i64
  %160 = getelementptr inbounds %struct.DdSubtable, ptr %157, i64 %159
  %161 = getelementptr inbounds nuw %struct.DdSubtable, ptr %160, i32 0, i32 6
  store i32 %154, ptr %161, align 4, !tbaa !35
  store i32 1, ptr %4, align 4
  store i32 1, ptr %18, align 4
  br label %162

162:                                              ; preds = %153, %75
  call void @llvm.lifetime.end.p0(i64 4, ptr %17) #5
  call void @llvm.lifetime.end.p0(i64 4, ptr %16) #5
  call void @llvm.lifetime.end.p0(i64 4, ptr %15) #5
  call void @llvm.lifetime.end.p0(i64 4, ptr %14) #5
  call void @llvm.lifetime.end.p0(i64 4, ptr %13) #5
  call void @llvm.lifetime.end.p0(i64 4, ptr %12) #5
  call void @llvm.lifetime.end.p0(i64 4, ptr %11) #5
  call void @llvm.lifetime.end.p0(i64 4, ptr %10) #5
  call void @llvm.lifetime.end.p0(i64 4, ptr %9) #5
  call void @llvm.lifetime.end.p0(i64 4, ptr %8) #5
  %163 = load i32, ptr %4, align 4
  ret i32 %163
}

; Function Attrs: nounwind uwtable
define internal i32 @zddGroupSiftingBackward(ptr noundef %0, ptr noundef %1, i32 noundef %2) #0 {
  %4 = alloca i32, align 4
  %5 = alloca ptr, align 8
  %6 = alloca ptr, align 8
  %7 = alloca i32, align 4
  %8 = alloca ptr, align 8
  %9 = alloca i32, align 4
  %10 = alloca i32, align 4
  store ptr %0, ptr %5, align 8, !tbaa !3
  store ptr %1, ptr %6, align 8, !tbaa !57
  store i32 %2, ptr %7, align 4, !tbaa !8
  call void @llvm.lifetime.start.p0(i64 8, ptr %8) #5
  call void @llvm.lifetime.start.p0(i64 4, ptr %9) #5
  %11 = load ptr, ptr %6, align 8, !tbaa !57
  store ptr %11, ptr %8, align 8, !tbaa !57
  br label %12

12:                                               ; preds = %26, %3
  %13 = load ptr, ptr %8, align 8, !tbaa !57
  %14 = icmp ne ptr %13, null
  br i1 %14, label %15, label %30

15:                                               ; preds = %12
  %16 = load ptr, ptr %8, align 8, !tbaa !57
  %17 = getelementptr inbounds nuw %struct.Move, ptr %16, i32 0, i32 3
  %18 = load i32, ptr %17, align 4, !tbaa !74
  %19 = load i32, ptr %7, align 4, !tbaa !8
  %20 = icmp slt i32 %18, %19
  br i1 %20, label %21, label %25

21:                                               ; preds = %15
  %22 = load ptr, ptr %8, align 8, !tbaa !57
  %23 = getelementptr inbounds nuw %struct.Move, ptr %22, i32 0, i32 3
  %24 = load i32, ptr %23, align 4, !tbaa !74
  store i32 %24, ptr %7, align 4, !tbaa !8
  br label %25

25:                                               ; preds = %21, %15
  br label %26

26:                                               ; preds = %25
  %27 = load ptr, ptr %8, align 8, !tbaa !57
  %28 = getelementptr inbounds nuw %struct.Move, ptr %27, i32 0, i32 4
  %29 = load ptr, ptr %28, align 8, !tbaa !64
  store ptr %29, ptr %8, align 8, !tbaa !57
  br label %12, !llvm.loop !78

30:                                               ; preds = %12
  %31 = load ptr, ptr %6, align 8, !tbaa !57
  store ptr %31, ptr %8, align 8, !tbaa !57
  br label %32

32:                                               ; preds = %99, %30
  %33 = load ptr, ptr %8, align 8, !tbaa !57
  %34 = icmp ne ptr %33, null
  br i1 %34, label %35, label %103

35:                                               ; preds = %32
  %36 = load ptr, ptr %8, align 8, !tbaa !57
  %37 = getelementptr inbounds nuw %struct.Move, ptr %36, i32 0, i32 3
  %38 = load i32, ptr %37, align 4, !tbaa !74
  %39 = load i32, ptr %7, align 4, !tbaa !8
  %40 = icmp eq i32 %38, %39
  br i1 %40, label %41, label %42

41:                                               ; preds = %35
  store i32 1, ptr %4, align 4
  store i32 1, ptr %10, align 4
  br label %104

42:                                               ; preds = %35
  %43 = load ptr, ptr %5, align 8, !tbaa !3
  %44 = getelementptr inbounds nuw %struct.DdManager, ptr %43, i32 0, i32 20
  %45 = load ptr, ptr %44, align 8, !tbaa !34
  %46 = load ptr, ptr %8, align 8, !tbaa !57
  %47 = getelementptr inbounds nuw %struct.Move, ptr %46, i32 0, i32 0
  %48 = load i32, ptr %47, align 8, !tbaa !62
  %49 = zext i32 %48 to i64
  %50 = getelementptr inbounds nuw %struct.DdSubtable, ptr %45, i64 %49
  %51 = getelementptr inbounds nuw %struct.DdSubtable, ptr %50, i32 0, i32 6
  %52 = load i32, ptr %51, align 4, !tbaa !35
  %53 = load ptr, ptr %8, align 8, !tbaa !57
  %54 = getelementptr inbounds nuw %struct.Move, ptr %53, i32 0, i32 0
  %55 = load i32, ptr %54, align 8, !tbaa !62
  %56 = icmp eq i32 %52, %55
  br i1 %56, label %57, label %85

57:                                               ; preds = %42
  %58 = load ptr, ptr %5, align 8, !tbaa !3
  %59 = getelementptr inbounds nuw %struct.DdManager, ptr %58, i32 0, i32 20
  %60 = load ptr, ptr %59, align 8, !tbaa !34
  %61 = load ptr, ptr %8, align 8, !tbaa !57
  %62 = getelementptr inbounds nuw %struct.Move, ptr %61, i32 0, i32 1
  %63 = load i32, ptr %62, align 4, !tbaa !59
  %64 = zext i32 %63 to i64
  %65 = getelementptr inbounds nuw %struct.DdSubtable, ptr %60, i64 %64
  %66 = getelementptr inbounds nuw %struct.DdSubtable, ptr %65, i32 0, i32 6
  %67 = load i32, ptr %66, align 4, !tbaa !35
  %68 = load ptr, ptr %8, align 8, !tbaa !57
  %69 = getelementptr inbounds nuw %struct.Move, ptr %68, i32 0, i32 1
  %70 = load i32, ptr %69, align 4, !tbaa !59
  %71 = icmp eq i32 %67, %70
  br i1 %71, label %72, label %85

72:                                               ; preds = %57
  %73 = load ptr, ptr %5, align 8, !tbaa !3
  %74 = load ptr, ptr %8, align 8, !tbaa !57
  %75 = getelementptr inbounds nuw %struct.Move, ptr %74, i32 0, i32 0
  %76 = load i32, ptr %75, align 8, !tbaa !62
  %77 = load ptr, ptr %8, align 8, !tbaa !57
  %78 = getelementptr inbounds nuw %struct.Move, ptr %77, i32 0, i32 1
  %79 = load i32, ptr %78, align 4, !tbaa !59
  %80 = call i32 @cuddZddSwapInPlace(ptr noundef %73, i32 noundef %76, i32 noundef %79)
  store i32 %80, ptr %9, align 4, !tbaa !8
  %81 = load i32, ptr %9, align 4, !tbaa !8
  %82 = icmp ne i32 %81, 0
  br i1 %82, label %84, label %83

83:                                               ; preds = %72
  store i32 0, ptr %4, align 4
  store i32 1, ptr %10, align 4
  br label %104

84:                                               ; preds = %72
  br label %98

85:                                               ; preds = %57, %42
  %86 = load ptr, ptr %5, align 8, !tbaa !3
  %87 = load ptr, ptr %8, align 8, !tbaa !57
  %88 = getelementptr inbounds nuw %struct.Move, ptr %87, i32 0, i32 0
  %89 = load i32, ptr %88, align 8, !tbaa !62
  %90 = load ptr, ptr %8, align 8, !tbaa !57
  %91 = getelementptr inbounds nuw %struct.Move, ptr %90, i32 0, i32 1
  %92 = load i32, ptr %91, align 4, !tbaa !59
  %93 = call i32 @zddGroupMoveBackward(ptr noundef %86, i32 noundef %89, i32 noundef %92)
  store i32 %93, ptr %9, align 4, !tbaa !8
  %94 = load i32, ptr %9, align 4, !tbaa !8
  %95 = icmp ne i32 %94, 0
  br i1 %95, label %97, label %96

96:                                               ; preds = %85
  store i32 0, ptr %4, align 4
  store i32 1, ptr %10, align 4
  br label %104

97:                                               ; preds = %85
  br label %98

98:                                               ; preds = %97, %84
  br label %99

99:                                               ; preds = %98
  %100 = load ptr, ptr %8, align 8, !tbaa !57
  %101 = getelementptr inbounds nuw %struct.Move, ptr %100, i32 0, i32 4
  %102 = load ptr, ptr %101, align 8, !tbaa !64
  store ptr %102, ptr %8, align 8, !tbaa !57
  br label %32, !llvm.loop !79

103:                                              ; preds = %32
  store i32 1, ptr %4, align 4
  store i32 1, ptr %10, align 4
  br label %104

104:                                              ; preds = %103, %96, %83, %41
  call void @llvm.lifetime.end.p0(i64 4, ptr %9) #5
  call void @llvm.lifetime.end.p0(i64 8, ptr %8) #5
  %105 = load i32, ptr %4, align 4
  ret i32 %105
}