; Function Attrs: nounwind uwtable
define internal fastcc range(i32 0, 2) i32 @zddGroupSiftingBackward(ptr noundef %0, ptr noundef readonly %1, i32 noundef %2) unnamed_addr #0 {
  %.not39 = icmp eq ptr %1, null
  br i1 %.not39, label %zddGroupMoveBackward.exit.thread, label %.lr.ph

.lr.ph44:                                         ; preds = %.lr.ph
  %4 = getelementptr inbounds nuw i8, ptr %0, i64 160
  br label %9

.lr.ph:                                           ; preds = %3, %.lr.ph
  %.041 = phi ptr [ %8, %.lr.ph ], [ %1, %3 ]
  %.02540 = phi i32 [ %spec.select, %.lr.ph ], [ %2, %3 ]
  %5 = getelementptr inbounds nuw i8, ptr %.041, i64 12
  %6 = load i32, ptr %5, align 4, !tbaa !69
  %spec.select = tail call i32 @llvm.smin.i32(i32 %6, i32 %.02540)
  %7 = getelementptr inbounds nuw i8, ptr %.041, i64 16
  %8 = load ptr, ptr %7, align 8, !tbaa !57
  %.not = icmp eq ptr %8, null
  br i1 %.not, label %.lr.ph44, label %.lr.ph, !llvm.loop !73

9:                                                ; preds = %.lr.ph44, %76
  %.143 = phi ptr [ %1, %.lr.ph44 ], [ %78, %76 ]
  %10 = getelementptr inbounds nuw i8, ptr %.143, i64 12
  %11 = load i32, ptr %10, align 4, !tbaa !69
  %12 = icmp eq i32 %11, %spec.select
  br i1 %12, label %zddGroupMoveBackward.exit.thread, label %13

13:                                               ; preds = %9
  %14 = load ptr, ptr %4, align 8, !tbaa !31
  %15 = load i32, ptr %.143, align 8, !tbaa !54
  %16 = zext i32 %15 to i64
  %17 = getelementptr inbounds nuw %struct.DdSubtable, ptr %14, i64 %16, i32 6
  %18 = load i32, ptr %17, align 4, !tbaa !32
  %19 = icmp eq i32 %18, %15
  %20 = getelementptr inbounds nuw i8, ptr %.143, i64 4
  %21 = load i32, ptr %20, align 4, !tbaa !51
  br i1 %19, label %22, label %._crit_edge

22:                                               ; preds = %13
  %23 = zext i32 %21 to i64
  %24 = getelementptr inbounds nuw %struct.DdSubtable, ptr %14, i64 %23, i32 6
  %25 = load i32, ptr %24, align 4, !tbaa !32
  %26 = icmp eq i32 %25, %21
  br i1 %26, label %27, label %._crit_edge

27:                                               ; preds = %22
  %28 = tail call i32 @cuddZddSwapInPlace(ptr noundef nonnull %0, i32 noundef %15, i32 noundef %21) #9
  %.not33 = icmp eq i32 %28, 0
  br i1 %.not33, label %zddGroupMoveBackward.exit.thread, label %76

._crit_edge:                                      ; preds = %13, %22
  %29 = sext i32 %15 to i64
  %30 = getelementptr inbounds %struct.DdSubtable, ptr %14, i64 %29, i32 6
  %31 = load i32, ptr %30, align 4, !tbaa !32
  br label %32

32:                                               ; preds = %32, %._crit_edge
  %.060.i = phi i32 [ %21, %._crit_edge ], [ %35, %32 ]
  %33 = sext i32 %.060.i to i64
  %34 = getelementptr inbounds %struct.DdSubtable, ptr %14, i64 %33, i32 6
  %35 = load i32, ptr %34, align 4, !tbaa !32
  %36 = icmp ult i32 %.060.i, %35
  br i1 %36, label %32, label %37, !llvm.loop !74

37:                                               ; preds = %32
  %38 = sub i32 %15, %31
  %39 = sub nsw i32 %.060.i, %21
  %.not75.i = icmp slt i32 %39, 0
  br i1 %.not75.i, label %._crit_edge81.i, label %.preheader70.lr.ph.i

.preheader70.lr.ph.i:                             ; preds = %37
  %.not6971.i = icmp slt i32 %38, 0
  br i1 %.not6971.i, label %.preheader70.us.preheader.i, label %.preheader70.preheader.i

.preheader70.preheader.i:                         ; preds = %.preheader70.lr.ph.i
  %40 = add i32 %15, 2
  %41 = sub i32 %40, %31
  %42 = add nuw i32 %39, 1
  br label %.preheader70.i

.preheader70.us.preheader.i:                      ; preds = %.preheader70.lr.ph.i
  %43 = add nuw i32 %39, 1
  br label %.preheader70.us.i

.preheader70.us.i:                                ; preds = %.preheader70.us.i, %.preheader70.us.preheader.i
  %.06476.us.i = phi i32 [ %46, %.preheader70.us.i ], [ 1, %.preheader70.us.preheader.i ]
  %44 = add nsw i32 %.06476.us.i, %21
  %45 = tail call i32 @cuddZddNextLow(ptr noundef %0, i32 noundef %44) #9
  %46 = add nuw i32 %.06476.us.i, 1
  %exitcond93.i = icmp eq i32 %.06476.us.i, %43
  br i1 %exitcond93.i, label %.preheader.i, label %.preheader70.us.i, !llvm.loop !75

.preheader70.i:                                   ; preds = %._crit_edge.i, %.preheader70.preheader.i
  %.05978.i = phi i32 [ %54, %._crit_edge.i ], [ %15, %.preheader70.preheader.i ]
  %.06177.i = phi i32 [ %53, %._crit_edge.i ], [ %21, %.preheader70.preheader.i ]
  %.06476.i = phi i32 [ %55, %._crit_edge.i ], [ 1, %.preheader70.preheader.i ]
  br label %47

.preheader.i:                                     ; preds = %._crit_edge.i, %.preheader70.us.i
  %.not.i = icmp eq i32 %.060.i, %21
  br i1 %.not.i, label %._crit_edge81.i, label %.lr.ph.i

47:                                               ; preds = %50, %.preheader70.i
  %.174.i = phi i32 [ %.05978.i, %.preheader70.i ], [ %51, %50 ]
  %.16273.i = phi i32 [ %.06177.i, %.preheader70.i ], [ %.174.i, %50 ]
  %.06772.i = phi i32 [ 1, %.preheader70.i ], [ %52, %50 ]
  %48 = tail call i32 @cuddZddSwapInPlace(ptr noundef %0, i32 noundef %.174.i, i32 noundef %.16273.i) #9
  %49 = icmp eq i32 %48, 0
  br i1 %49, label %zddGroupMoveBackward.exit.thread, label %50

50:                                               ; preds = %47
  %51 = tail call i32 @cuddZddNextLow(ptr noundef %0, i32 noundef %.174.i) #9
  %52 = add nuw i32 %.06772.i, 1
  %exitcond.i = icmp eq i32 %52, %41
  br i1 %exitcond.i, label %._crit_edge.i, label %47, !llvm.loop !76

._crit_edge.i:                                    ; preds = %50
  %53 = add nsw i32 %.06476.i, %21
  %54 = tail call i32 @cuddZddNextLow(ptr noundef %0, i32 noundef %53) #9
  %55 = add nuw i32 %.06476.i, 1
  %exitcond91.i = icmp eq i32 %.06476.i, %42
  br i1 %exitcond91.i, label %.preheader.i, label %.preheader70.i, !llvm.loop !75

.lr.ph.i:                                         ; preds = %.preheader.i, %.lr.ph.i
  %.26380.i = phi i32 [ %60, %.lr.ph.i ], [ %31, %.preheader.i ]
  %.16579.i = phi i32 [ %61, %.lr.ph.i ], [ 0, %.preheader.i ]
  %56 = tail call i32 @cuddZddNextHigh(ptr noundef %0, i32 noundef %.26380.i) #9
  %57 = load ptr, ptr %4, align 8, !tbaa !31
  %58 = sext i32 %.26380.i to i64
  %59 = getelementptr inbounds %struct.DdSubtable, ptr %57, i64 %58, i32 6
  store i32 %56, ptr %59, align 4, !tbaa !32
  %60 = tail call i32 @cuddZddNextHigh(ptr noundef %0, i32 noundef %.26380.i) #9
  %61 = add nuw nsw i32 %.16579.i, 1
  %exitcond94.not.i = icmp eq i32 %61, %39
  br i1 %exitcond94.not.i, label %._crit_edge81.i, label %.lr.ph.i, !llvm.loop !77

._crit_edge81.i:                                  ; preds = %.lr.ph.i, %.preheader.i, %37
  %.263.lcssa.i = phi i32 [ %31, %.preheader.i ], [ %31, %37 ], [ %60, %.lr.ph.i ]
  %62 = load ptr, ptr %4, align 8, !tbaa !31
  %63 = sext i32 %.263.lcssa.i to i64
  %64 = getelementptr inbounds %struct.DdSubtable, ptr %62, i64 %63, i32 6
  store i32 %31, ptr %64, align 4, !tbaa !32
  %65 = tail call i32 @cuddZddNextHigh(ptr noundef %0, i32 noundef %.263.lcssa.i) #9
  %66 = icmp sgt i32 %38, 0
  br i1 %66, label %.lr.ph85.i, label %zddGroupMoveBackward.exit

.lr.ph85.i:                                       ; preds = %._crit_edge81.i, %.lr.ph85.i
  %.283.i = phi i32 [ %71, %.lr.ph85.i ], [ %65, %._crit_edge81.i ]
  %.26682.i = phi i32 [ %72, %.lr.ph85.i ], [ 0, %._crit_edge81.i ]
  %67 = tail call i32 @cuddZddNextHigh(ptr noundef nonnull %0, i32 noundef %.283.i) #9
  %68 = load ptr, ptr %4, align 8, !tbaa !31
  %69 = sext i32 %.283.i to i64
  %70 = getelementptr inbounds %struct.DdSubtable, ptr %68, i64 %69, i32 6
  store i32 %67, ptr %70, align 4, !tbaa !32
  %71 = tail call i32 @cuddZddNextHigh(ptr noundef nonnull %0, i32 noundef %.283.i) #9
  %72 = add nuw nsw i32 %.26682.i, 1
  %exitcond95.not.i = icmp eq i32 %72, %38
  br i1 %exitcond95.not.i, label %zddGroupMoveBackward.exit, label %.lr.ph85.i, !llvm.loop !78

zddGroupMoveBackward.exit:                        ; preds = %.lr.ph85.i, %._crit_edge81.i
  %.2.lcssa.i = phi i32 [ %65, %._crit_edge81.i ], [ %71, %.lr.ph85.i ]
  %73 = load ptr, ptr %4, align 8, !tbaa !31
  %74 = sext i32 %.2.lcssa.i to i64
  %75 = getelementptr inbounds %struct.DdSubtable, ptr %73, i64 %74, i32 6
  store i32 %65, ptr %75, align 4, !tbaa !32
  br label %76

76:                                               ; preds = %zddGroupMoveBackward.exit, %27
  %77 = getelementptr inbounds nuw i8, ptr %.143, i64 16
  %78 = load ptr, ptr %77, align 8, !tbaa !57
  %.not31 = icmp eq ptr %78, null
  br i1 %.not31, label %zddGroupMoveBackward.exit.thread, label %9, !llvm.loop !79

zddGroupMoveBackward.exit.thread:                 ; preds = %9, %27, %76, %47, %3
  %.027 = phi i32 [ 1, %3 ], [ 0, %47 ], [ 1, %9 ], [ 0, %27 ], [ 1, %76 ]
  ret i32 %.027
}